target datalayout = "e-m:e-p270:32:32-p271:32:32-p272:64:64-i64:64-i128:128-f80:128-n8:16:32:64-S128"
target triple = "x86_64-pc-linux-gnu"

%struct.AVFormatContext = type { ptr, ptr, ptr, ptr, ptr, i32, i32, ptr, i32, ptr, i32, ptr, ptr, i64, i64, i64, i32, i32, i32, i64, i64, ptr, i32, i32, ptr, i32, i32, i32, i32, ptr, i64, i32, i32, %struct.AVIOInterruptCB, i32, i32, i32, i32, i64, i32, i32, i32, i32, i32, i32, i32, i32, i32, i32, i32, i32, i64, i32, i32, i32, i32, i32, ptr, ptr, ptr, ptr, i32, ptr, ptr, ptr, ptr, i32, ptr, ptr, i64, ptr, ptr, ptr, i64 }
%struct.AVIOInterruptCB = type { ptr, ptr }
%struct.HashContext = type { ptr, ptr, ptr, i32, i32 }

; Function Attrs: nounwind uwtable
define internal i32 @hash_init(ptr noundef %0) #0 {
  %2 = alloca i32, align 4
  %3 = alloca ptr, align 8
  %4 = alloca i32, align 4
  %5 = alloca ptr, align 8
  %6 = alloca i32, align 4
  store ptr %0, ptr %3, align 8, !tbaa !4
  call void @llvm.lifetime.start.p0(i64 4, ptr %4) #5
  call void @llvm.lifetime.start.p0(i64 8, ptr %5) #5
  %7 = load ptr, ptr %3, align 8, !tbaa !4
  %8 = getelementptr inbounds nuw %struct.AVFormatContext, ptr %7, i32 0, i32 3
  %9 = load ptr, ptr %8, align 8, !tbaa !11
  store ptr %9, ptr %5, align 8, !tbaa !28
  %10 = load ptr, ptr %5, align 8, !tbaa !28
  %11 = getelementptr inbounds nuw %struct.HashContext, ptr %10, i32 0, i32 3
  store i32 0, ptr %11, align 8, !tbaa !33
  %12 = call noalias ptr @av_mallocz(i64 noundef 8)
  %13 = load ptr, ptr %5, align 8, !tbaa !28
  %14 = getelementptr inbounds nuw %struct.HashContext, ptr %13, i32 0, i32 1
  store ptr %12, ptr %14, align 8, !tbaa !30
  %15 = load ptr, ptr %5, align 8, !tbaa !28
  %16 = getelementptr inbounds nuw %struct.HashContext, ptr %15, i32 0, i32 1
  %17 = load ptr, ptr %16, align 8, !tbaa !30
  %18 = icmp ne ptr %17, null
  br i1 %18, label %20, label %19

19:                                               ; preds = %1
  store i32 -12, ptr %2, align 4
  store i32 1, ptr %6, align 4
  br label %39

20:                                               ; preds = %1
  %21 = load ptr, ptr %5, align 8, !tbaa !28
  %22 = getelementptr inbounds nuw %struct.HashContext, ptr %21, i32 0, i32 1
  %23 = load ptr, ptr %22, align 8, !tbaa !30
  %24 = getelementptr inbounds ptr, ptr %23, i64 0
  %25 = load ptr, ptr %5, align 8, !tbaa !28
  %26 = getelementptr inbounds nuw %struct.HashContext, ptr %25, i32 0, i32 2
  %27 = load ptr, ptr %26, align 8, !tbaa !57
  %28 = call i32 @av_hash_alloc(ptr noundef %24, ptr noundef %27)
  store i32 %28, ptr %4, align 4, !tbaa !44
  %29 = load i32, ptr %4, align 4, !tbaa !44
  %30 = icmp slt i32 %29, 0
  br i1 %30, label %31, label %33

31:                                               ; preds = %20
  %32 = load i32, ptr %4, align 4, !tbaa !44
  store i32 %32, ptr %2, align 4
  store i32 1, ptr %6, align 4
  br label %39

33:                                               ; preds = %20
  %34 = load ptr, ptr %5, align 8, !tbaa !28
  %35 = getelementptr inbounds nuw %struct.HashContext, ptr %34, i32 0, i32 1
  %36 = load ptr, ptr %35, align 8, !tbaa !30
  %37 = getelementptr inbounds ptr, ptr %36, i64 0
  %38 = load ptr, ptr %37, align 8, !tbaa !39
  call void @av_hash_init(ptr noundef %38)
  store i32 0, ptr %2, align 4
  store i32 1, ptr %6, align 4
  br label %39

39:                                               ; preds = %33, %31, %19
  call void @llvm.lifetime.end.p0(i64 8, ptr %5) #5
  call void @llvm.lifetime.end.p0(i64 4, ptr %4) #5
  %40 = load i32, ptr %2, align 4
  ret i32 %40
}